target datalayout = "e-m:e-p270:32:32-p271:32:32-p272:64:64-i64:64-i128:128-f80:128-n8:16:32:64-S128"
target triple = "x86_64-pc-linux-gnu"

%"class.ue2::flat_set" = type { %"class.ue2::flat_detail::flat_base" }
%"class.ue2::flat_detail::flat_base" = type { %"class.std::tuple.18" }
%"class.std::tuple.18" = type { %"struct.std::_Tuple_impl.19" }
%"struct.std::_Tuple_impl.19" = type { %"struct.std::_Head_base.22" }
%"struct.std::_Head_base.22" = type { %"class.boost::container::small_vector" }
%"class.boost::container::small_vector" = type { %"class.boost::container::small_vector_base.base", [4 x i8] }
%"class.boost::container::small_vector_base.base" = type <{ %"class.boost::container::vector", %"union.boost::move_detail::aligned_struct_wrapper" }>
%"class.boost::container::vector" = type { %"struct.boost::container::vector_alloc_holder" }
%"struct.boost::container::vector_alloc_holder" = type { ptr, i64, i64 }
%"union.boost::move_detail::aligned_struct_wrapper" = type { %"struct.boost::move_detail::aligned_struct" }
%"struct.boost::move_detail::aligned_struct" = type { [4 x i8] }
%"struct.ue2::raw_dfa" = type { ptr, i32, %"class.std::vector", i16, i16, i16, %"struct.std::array" }
%"class.std::vector" = type { %"struct.std::_Vector_base" }
%"struct.std::_Vector_base" = type { %"struct.std::_Vector_base<ue2::dstate, std::allocator<ue2::dstate>>::_Vector_impl" }
%"struct.std::_Vector_base<ue2::dstate, std::allocator<ue2::dstate>>::_Vector_impl" = type { %"struct.std::_Vector_base<ue2::dstate, std::allocator<ue2::dstate>>::_Vector_impl_data" }
%"struct.std::_Vector_base<ue2::dstate, std::allocator<ue2::dstate>>::_Vector_impl_data" = type { ptr, ptr, ptr }
%"struct.std::array" = type { [257 x i16] }
%"struct.ue2::dstate" = type { %"class.std::vector.13", i16, i16, [4 x i8], %"class.ue2::flat_set", %"class.ue2::flat_set" }
%"class.std::vector.13" = type { %"struct.std::_Vector_base.14" }
%"struct.std::_Vector_base.14" = type { %"struct.std::_Vector_base<unsigned short, std::allocator<unsigned short>>::_Vector_impl" }
%"struct.std::_Vector_base<unsigned short, std::allocator<unsigned short>>::_Vector_impl" = type { %"struct.std::_Vector_base<unsigned short, std::allocator<unsigned short>>::_Vector_impl_data" }
%"struct.std::_Vector_base<unsigned short, std::allocator<unsigned short>>::_Vector_impl_data" = type { ptr, ptr, ptr }
%"class.ue2::CharReach" = type { %"class.ue2::bitfield" }
%"class.ue2::bitfield" = type { %"struct.std::array.133" }
%"struct.std::array.133" = type { [4 x i64] }

; Function Attrs: mustprogress nounwind uwtable
define linkonce_odr dso_local noundef nonnull align 8 dereferenceable(8) ptr @_ZNSt14__array_traitsIyLm4EE6_S_refERA4_Kym(ptr noundef nonnull align 8 dereferenceable(32) %0, i64 noundef %1) #1 comdat align 2 {
  %3 = alloca ptr, align 8
  %4 = alloca i64, align 8
  store ptr %0, ptr %3, align 8
  store i64 %1, ptr %4, align 8
  %5 = load ptr, ptr %3, align 8
  %6 = load i64, ptr %4, align 8
  %7 = getelementptr inbounds nuw [4 x i64], ptr %5, i64 0, i64 %6
  ret ptr %7
}

; Function Attrs: alwaysinline mustprogress nounwind uwtable
define internal noundef i32 @_ZL10popcount64y(i64 noundef %0) #18 {
  %2 = alloca i64, align 8
  store i64 %0, ptr %2, align 8
  %3 = load i64, ptr %2, align 8
  %4 = lshr i64 %3, 1
  %5 = and i64 %4, 6148914691236517205
  %6 = load i64, ptr %2, align 8
  %7 = sub i64 %6, %5
  store i64 %7, ptr %2, align 8
  %8 = load i64, ptr %2, align 8
  %9 = and i64 %8, 3689348814741910323
  %10 = load i64, ptr %2, align 8
  %11 = lshr i64 %10, 2
  %12 = and i64 %11, 3689348814741910323
  %13 = add i64 %9, %12
  store i64 %13, ptr %2, align 8
  %14 = load i64, ptr %2, align 8
  %15 = load i64, ptr %2, align 8
  %16 = lshr i64 %15, 4
  %17 = add i64 %14, %16
  %18 = and i64 %17, 1085102592571150095
  store i64 %18, ptr %2, align 8
  %19 = load i64, ptr %2, align 8
  %20 = mul i64 %19, 72340172838076673
  %21 = lshr i64 %20, 56
  %22 = trunc i64 %21 to i32
  ret i32 %22
}

; Function Attrs: mustprogress nounwind uwtable
define linkonce_odr dso_local noundef nonnull align 8 dereferenceable(8) ptr @_ZNKSt5arrayIyLm4EEixEm(ptr noundef nonnull align 8 dereferenceable(32) %0, i64 noundef %1) #1 comdat align 2 {
  %3 = alloca ptr, align 8
  %4 = alloca i64, align 8
  store ptr %0, ptr %3, align 8
  store i64 %1, ptr %4, align 8
  %5 = load ptr, ptr %3, align 8
  %6 = getelementptr inbounds nuw %"struct.std::array.133", ptr %5, i32 0, i32 0
  %7 = load i64, ptr %4, align 8
  %8 = call noundef nonnull align 8 dereferenceable(8) ptr @_ZNSt14__array_traitsIyLm4EE6_S_refERA4_Kym(ptr noundef nonnull align 8 dereferenceable(32) %6, i64 noundef %7) #20
  ret ptr %8
}

; Function Attrs: mustprogress nounwind uwtable
define linkonce_odr dso_local noundef nonnull align 8 dereferenceable(8) ptr @_ZNSt5arrayIyLm4EEixEm(ptr noundef nonnull align 8 dereferenceable(32) %0, i64 noundef %1) #1 comdat align 2 {
  %3 = alloca ptr, align 8
  %4 = alloca i64, align 8
  store ptr %0, ptr %3, align 8
  store i64 %1, ptr %4, align 8
  %5 = load ptr, ptr %3, align 8
  %6 = getelementptr inbounds nuw %"struct.std::array.133", ptr %5, i32 0, i32 0
  %7 = load i64, ptr %4, align 8
  %8 = call noundef nonnull align 8 dereferenceable(8) ptr @_ZNSt14__array_traitsIyLm4EE6_S_refERA4_Kym(ptr noundef nonnull align 8 dereferenceable(32) %6, i64 noundef %7) #20
  ret ptr %8
}

; Function Attrs: mustprogress nounwind uwtable
define linkonce_odr hidden noundef i64 @_ZN3ue28bitfieldILm256EE7getwordEm(i64 noundef %0) #1 comdat align 2 {
  %2 = alloca i64, align 8
  store i64 %0, ptr %2, align 8
  %3 = load i64, ptr %2, align 8
  %4 = udiv i64 %3, 64
  ret i64 %4
}

; Function Attrs: mustprogress nounwind uwtable
define linkonce_odr hidden noundef i64 @_ZN3ue28bitfieldILm256EE7maskbitEm(i64 noundef %0) #1 comdat align 2 {
  %2 = alloca i64, align 8
  store i64 %0, ptr %2, align 8
  %3 = load i64, ptr %2, align 8
  %4 = urem i64 %3, 64
  %5 = shl i64 1, %4
  ret i64 %5
}

; Function Attrs: mustprogress uwtable
define linkonce_odr hidden noundef i64 @_ZNK3ue28bitfieldILm256EE5countEv(ptr noundef nonnull align 8 dereferenceable(32) %0) #3 comdat align 2 {
  %2 = alloca ptr, align 8
  %3 = alloca i64, align 8
  %4 = alloca i64, align 8
  store ptr %0, ptr %2, align 8
  %5 = load ptr, ptr %2, align 8
  call void @llvm.lifetime.start.p0(i64 8, ptr %3) #20
  store i64 0, ptr %3, align 8
  call void @llvm.lifetime.start.p0(i64 8, ptr %4) #20
  store i64 0, ptr %4, align 8
  br label %6

6:                                                ; preds = %46, %1
  %7 = load i64, ptr %4, align 8
  %8 = add i64 %7, 4
  %9 = icmp ule i64 %8, 4
  br i1 %9, label %10, label %49

10:                                               ; preds = %6
  %11 = getelementptr inbounds nuw %"class.ue2::bitfield", ptr %5, i32 0, i32 0
  %12 = load i64, ptr %4, align 8
  %13 = call noundef nonnull align 8 dereferenceable(8) ptr @_ZNKSt5arrayIyLm4EEixEm(ptr noundef nonnull align 8 dereferenceable(32) %11, i64 noundef %12) #20
  %14 = load i64, ptr %13, align 8
  %15 = call noundef i32 @_ZL10popcount64y(i64 noundef %14)
  %16 = zext i32 %15 to i64
  %17 = load i64, ptr %3, align 8
  %18 = add i64 %17, %16
  store i64 %18, ptr %3, align 8
  %19 = getelementptr inbounds nuw %"class.ue2::bitfield", ptr %5, i32 0, i32 0
  %20 = load i64, ptr %4, align 8
  %21 = add i64 %20, 1
  %22 = call noundef nonnull align 8 dereferenceable(8) ptr @_ZNKSt5arrayIyLm4EEixEm(ptr noundef nonnull align 8 dereferenceable(32) %19, i64 noundef %21) #20
  %23 = load i64, ptr %22, align 8
  %24 = call noundef i32 @_ZL10popcount64y(i64 noundef %23)
  %25 = zext i32 %24 to i64
  %26 = load i64, ptr %3, align 8
  %27 = add i64 %26, %25
  store i64 %27, ptr %3, align 8
  %28 = getelementptr inbounds nuw %"class.ue2::bitfield", ptr %5, i32 0, i32 0
  %29 = load i64, ptr %4, align 8
  %30 = add i64 %29, 2
  %31 = call noundef nonnull align 8 dereferenceable(8) ptr @_ZNKSt5arrayIyLm4EEixEm(ptr noundef nonnull align 8 dereferenceable(32) %28, i64 noundef %30) #20
  %32 = load i64, ptr %31, align 8
  %33 = call noundef i32 @_ZL10popcount64y(i64 noundef %32)
  %34 = zext i32 %33 to i64
  %35 = load i64, ptr %3, align 8
  %36 = add i64 %35, %34
  store i64 %36, ptr %3, align 8
  %37 = getelementptr inbounds nuw %"class.ue2::bitfield", ptr %5, i32 0, i32 0
  %38 = load i64, ptr %4, align 8
  %39 = add i64 %38, 3
  %40 = call noundef nonnull align 8 dereferenceable(8) ptr @_ZNKSt5arrayIyLm4EEixEm(ptr noundef nonnull align 8 dereferenceable(32) %37, i64 noundef %39) #20
  %41 = load i64, ptr %40, align 8
  %42 = call noundef i32 @_ZL10popcount64y(i64 noundef %41)
  %43 = zext i32 %42 to i64
  %44 = load i64, ptr %3, align 8
  %45 = add i64 %44, %43
  store i64 %45, ptr %3, align 8
  br label %46

46:                                               ; preds = %10
  %47 = load i64, ptr %4, align 8
  %48 = add i64 %47, 4
  store i64 %48, ptr %4, align 8
  br label %6, !llvm.loop !72

49:                                               ; preds = %6
  br label %50

50:                                               ; preds = %62, %49
  %51 = load i64, ptr %4, align 8
  %52 = icmp ult i64 %51, 4
  br i1 %52, label %53, label %65

53:                                               ; preds = %50
  %54 = getelementptr inbounds nuw %"class.ue2::bitfield", ptr %5, i32 0, i32 0
  %55 = load i64, ptr %4, align 8
  %56 = call noundef nonnull align 8 dereferenceable(8) ptr @_ZNKSt5arrayIyLm4EEixEm(ptr noundef nonnull align 8 dereferenceable(32) %54, i64 noundef %55) #20
  %57 = load i64, ptr %56, align 8
  %58 = call noundef i32 @_ZL10popcount64y(i64 noundef %57)
  %59 = zext i32 %58 to i64
  %60 = load i64, ptr %3, align 8
  %61 = add i64 %60, %59
  store i64 %61, ptr %3, align 8
  br label %62

62:                                               ; preds = %53
  %63 = load i64, ptr %4, align 8
  %64 = add i64 %63, 1
  store i64 %64, ptr %4, align 8
  br label %50, !llvm.loop !73

65:                                               ; preds = %50
  %66 = load i64, ptr %3, align 8
  call void @llvm.lifetime.end.p0(i64 8, ptr %4) #20
  call void @llvm.lifetime.end.p0(i64 8, ptr %3) #20
  ret i64 %66
}

; Function Attrs: mustprogress uwtable
define linkonce_odr hidden void @_ZN3ue28bitfieldILm256EE3setEm(ptr noundef nonnull align 8 dereferenceable(32) %0, i64 noundef %1) #3 comdat align 2 {
  %3 = alloca ptr, align 8
  %4 = alloca i64, align 8
  store ptr %0, ptr %3, align 8
  store i64 %1, ptr %4, align 8
  %5 = load ptr, ptr %3, align 8
  %6 = load i64, ptr %4, align 8
  %7 = call noundef i64 @_ZN3ue28bitfieldILm256EE7maskbitEm(i64 noundef %6)
  %8 = getelementptr inbounds nuw %"class.ue2::bitfield", ptr %5, i32 0, i32 0
  %9 = load i64, ptr %4, align 8
  %10 = call noundef i64 @_ZN3ue28bitfieldILm256EE7getwordEm(i64 noundef %9)
  %11 = call noundef nonnull align 8 dereferenceable(8) ptr @_ZNSt5arrayIyLm4EEixEm(ptr noundef nonnull align 8 dereferenceable(32) %8, i64 noundef %10) #20
  %12 = load i64, ptr %11, align 8
  %13 = or i64 %12, %7
  store i64 %13, ptr %11, align 8
  ret void
}

; Function Attrs: mustprogress nounwind uwtable
define linkonce_odr dso_local noundef nonnull align 2 dereferenceable(2) ptr @_ZNSt14__array_traitsItLm257EE6_S_refERA257_Ktm(ptr noundef nonnull align 2 dereferenceable(514) %0, i64 noundef %1) #1 comdat align 2 {
  %3 = alloca ptr, align 8
  %4 = alloca i64, align 8
  store ptr %0, ptr %3, align 8
  store i64 %1, ptr %4, align 8
  %5 = load ptr, ptr %3, align 8
  %6 = load i64, ptr %4, align 8
  %7 = getelementptr inbounds nuw [257 x i16], ptr %5, i64 0, i64 %6
  ret ptr %7
}

; Function Attrs: mustprogress nounwind uwtable
define linkonce_odr hidden void @_ZN3ue28bitfieldILm256EEC2Ev(ptr noundef nonnull align 8 dereferenceable(32) %0) unnamed_addr #1 comdat align 2 {
  %2 = alloca ptr, align 8
  store ptr %0, ptr %2, align 8
  %3 = load ptr, ptr %2, align 8
  %4 = getelementptr inbounds nuw %"class.ue2::bitfield", ptr %3, i32 0, i32 0
  call void @llvm.memset.p0.i64(ptr align 8 %4, i8 0, i64 32, i1 false)
  ret void
}

; Function Attrs: mustprogress uwtable
define linkonce_odr hidden noundef i64 @_ZNK3ue29CharReach5countEv(ptr noundef nonnull align 8 dereferenceable(32) %0) #3 comdat align 2 {
  %2 = alloca ptr, align 8
  store ptr %0, ptr %2, align 8
  %3 = load ptr, ptr %2, align 8
  %4 = getelementptr inbounds nuw %"class.ue2::CharReach", ptr %3, i32 0, i32 0
  %5 = call noundef i64 @_ZNK3ue28bitfieldILm256EE5countEv(ptr noundef nonnull align 8 dereferenceable(32) %4)
  ret i64 %5
}

; Function Attrs: mustprogress uwtable
define linkonce_odr hidden void @_ZN3ue29CharReach3setEh(ptr noundef nonnull align 8 dereferenceable(32) %0, i8 noundef zeroext %1) #3 comdat align 2 {
  %3 = alloca ptr, align 8
  %4 = alloca i8, align 1
  store ptr %0, ptr %3, align 8
  store i8 %1, ptr %4, align 1
  %5 = load ptr, ptr %3, align 8
  %6 = getelementptr inbounds nuw %"class.ue2::CharReach", ptr %5, i32 0, i32 0
  %7 = load i8, ptr %4, align 1
  %8 = zext i8 %7 to i64
  call void @_ZN3ue28bitfieldILm256EE3setEm(ptr noundef nonnull align 8 dereferenceable(32) %6, i64 noundef %8)
  ret void
}

; Function Attrs: mustprogress nounwind uwtable
define linkonce_odr dso_local noundef nonnull align 2 dereferenceable(2) ptr @_ZNKSt6vectorItSaItEEixEm(ptr noundef nonnull align 8 dereferenceable(24) %0, i64 noundef %1) #1 comdat align 2 {
  %3 = alloca ptr, align 8
  %4 = alloca i64, align 8
  store ptr %0, ptr %3, align 8
  store i64 %1, ptr %4, align 8
  %5 = load ptr, ptr %3, align 8
  %6 = getelementptr inbounds nuw %"struct.std::_Vector_base.14", ptr %5, i32 0, i32 0
  %7 = getelementptr inbounds nuw %"struct.std::_Vector_base<unsigned short, std::allocator<unsigned short>>::_Vector_impl_data", ptr %6, i32 0, i32 0
  %8 = load ptr, ptr %7, align 8
  %9 = load i64, ptr %4, align 8
  %10 = getelementptr inbounds nuw i16, ptr %8, i64 %9
  ret ptr %10
}

; Function Attrs: mustprogress nounwind uwtable
define linkonce_odr dso_local noundef nonnull align 2 dereferenceable(2) ptr @_ZNKSt5arrayItLm257EEixEm(ptr noundef nonnull align 2 dereferenceable(514) %0, i64 noundef %1) #1 comdat align 2 {
  %3 = alloca ptr, align 8
  %4 = alloca i64, align 8
  store ptr %0, ptr %3, align 8
  store i64 %1, ptr %4, align 8
  %5 = load ptr, ptr %3, align 8
  %6 = getelementptr inbounds nuw %"struct.std::array", ptr %5, i32 0, i32 0
  %7 = load i64, ptr %4, align 8
  %8 = call noundef nonnull align 2 dereferenceable(2) ptr @_ZNSt14__array_traitsItLm257EE6_S_refERA257_Ktm(ptr noundef nonnull align 2 dereferenceable(514) %6, i64 noundef %7) #20
  ret ptr %8
}

; Function Attrs: mustprogress uwtable
define linkonce_odr hidden void @_ZN3ue29CharReachC2Ev(ptr noundef nonnull align 8 dereferenceable(32) %0) unnamed_addr #3 comdat align 2 {
  %2 = alloca ptr, align 8
  store ptr %0, ptr %2, align 8
  %3 = load ptr, ptr %2, align 8
  %4 = getelementptr inbounds nuw %"class.ue2::CharReach", ptr %3, i32 0, i32 0
  call void @_ZN3ue28bitfieldILm256EEC2Ev(ptr noundef nonnull align 8 dereferenceable(32) %4)
  ret void
}

; Function Attrs: mustprogress nounwind uwtable
define linkonce_odr hidden noundef nonnull align 8 dereferenceable(96) ptr @_ZNKSt6vectorIN3ue26dstateESaIS1_EEixEm(ptr noundef nonnull align 8 dereferenceable(24) %0, i64 noundef %1) #1 comdat align 2 {
  %3 = alloca ptr, align 8
  %4 = alloca i64, align 8
  store ptr %0, ptr %3, align 8
  store i64 %1, ptr %4, align 8
  %5 = load ptr, ptr %3, align 8
  %6 = getelementptr inbounds nuw %"struct.std::_Vector_base", ptr %5, i32 0, i32 0
  %7 = getelementptr inbounds nuw %"struct.std::_Vector_base<ue2::dstate, std::allocator<ue2::dstate>>::_Vector_impl_data", ptr %6, i32 0, i32 0
  %8 = load ptr, ptr %7, align 8
  %9 = load i64, ptr %4, align 8
  %10 = getelementptr inbounds nuw %"struct.ue2::dstate", ptr %8, i64 %9
  ret ptr %10
}

; Function Attrs: mustprogress nounwind uwtable
define linkonce_odr hidden noundef i64 @_ZNKSt6vectorIN3ue26dstateESaIS1_EE4sizeEv(ptr noundef nonnull align 8 dereferenceable(24) %0) #1 comdat align 2 {
  %2 = alloca ptr, align 8
  store ptr %0, ptr %2, align 8
  %3 = load ptr, ptr %2, align 8
  %4 = getelementptr inbounds nuw %"struct.std::_Vector_base", ptr %3, i32 0, i32 0
  %5 = getelementptr inbounds nuw %"struct.std::_Vector_base<ue2::dstate, std::allocator<ue2::dstate>>::_Vector_impl_data", ptr %4, i32 0, i32 1
  %6 = load ptr, ptr %5, align 8
  %7 = getelementptr inbounds nuw %"struct.std::_Vector_base", ptr %3, i32 0, i32 0
  %8 = getelementptr inbounds nuw %"struct.std::_Vector_base<ue2::dstate, std::allocator<ue2::dstate>>::_Vector_impl_data", ptr %7, i32 0, i32 0
  %9 = load ptr, ptr %8, align 8
  %10 = ptrtoint ptr %6 to i64
  %11 = ptrtoint ptr %9 to i64
  %12 = sub i64 %10, %11
  %13 = sdiv exact i64 %12, 96
  ret i64 %13
}

; Function Attrs: mustprogress uwtable
define hidden noundef i32 @_ZN3ue223mcclellanStartReachSizeEPKNS_7raw_dfaE(ptr noundef %0) #3 {
  %2 = alloca i32, align 4
  %3 = alloca ptr, align 8
  %4 = alloca ptr, align 8
  %5 = alloca %"class.ue2::CharReach", align 8
  %6 = alloca i32, align 4
  store ptr %0, ptr %3, align 8
  %7 = load ptr, ptr %3, align 8
  %8 = getelementptr inbounds nuw %"struct.ue2::raw_dfa", ptr %7, i32 0, i32 2
  %9 = call noundef i64 @_ZNKSt6vectorIN3ue26dstateESaIS1_EE4sizeEv(ptr noundef nonnull align 8 dereferenceable(24) %8) #20
  %10 = icmp ult i64 %9, 2
  br i1 %10, label %11, label %12

11:                                               ; preds = %1
  store i32 0, ptr %2, align 4
  br label %48

12:                                               ; preds = %1
  call void @llvm.lifetime.start.p0(i64 8, ptr %4) #20
  %13 = load ptr, ptr %3, align 8
  %14 = getelementptr inbounds nuw %"struct.ue2::raw_dfa", ptr %13, i32 0, i32 2
  %15 = load ptr, ptr %3, align 8
  %16 = getelementptr inbounds nuw %"struct.ue2::raw_dfa", ptr %15, i32 0, i32 3
  %17 = load i16, ptr %16, align 8
  %18 = zext i16 %17 to i64
  %19 = call noundef nonnull align 8 dereferenceable(96) ptr @_ZNKSt6vectorIN3ue26dstateESaIS1_EEixEm(ptr noundef nonnull align 8 dereferenceable(24) %14, i64 noundef %18) #20
  store ptr %19, ptr %4, align 8
  call void @llvm.lifetime.start.p0(i64 32, ptr %5) #20
  call void @_ZN3ue29CharReachC2Ev(ptr noundef nonnull align 8 dereferenceable(32) %5)
  call void @llvm.lifetime.start.p0(i64 4, ptr %6) #20
  store i32 0, ptr %6, align 4
  br label %20

20:                                               ; preds = %42, %12
  %21 = load i32, ptr %6, align 4
  %22 = icmp ult i32 %21, 256
  br i1 %22, label %24, label %23

23:                                               ; preds = %20
  call void @llvm.lifetime.end.p0(i64 4, ptr %6) #20
  br label %45

24:                                               ; preds = %20
  %25 = load ptr, ptr %4, align 8
  %26 = getelementptr inbounds nuw %"struct.ue2::dstate", ptr %25, i32 0, i32 0
  %27 = load ptr, ptr %3, align 8
  %28 = getelementptr inbounds nuw %"struct.ue2::raw_dfa", ptr %27, i32 0, i32 6
  %29 = load i32, ptr %6, align 4
  %30 = zext i32 %29 to i64
  %31 = call noundef nonnull align 2 dereferenceable(2) ptr @_ZNKSt5arrayItLm257EEixEm(ptr noundef nonnull align 2 dereferenceable(514) %28, i64 noundef %30) #20
  %32 = load i16, ptr %31, align 2
  %33 = zext i16 %32 to i64
  %34 = call noundef nonnull align 2 dereferenceable(2) ptr @_ZNKSt6vectorItSaItEEixEm(ptr noundef nonnull align 8 dereferenceable(24) %26, i64 noundef %33) #20
  %35 = load i16, ptr %34, align 2
  %36 = zext i16 %35 to i32
  %37 = icmp ne i32 %36, 0
  br i1 %37, label %38, label %41

38:                                               ; preds = %24
  %39 = load i32, ptr %6, align 4
  %40 = trunc i32 %39 to i8
  call void @_ZN3ue29CharReach3setEh(ptr noundef nonnull align 8 dereferenceable(32) %5, i8 noundef zeroext %40)
  br label %41

41:                                               ; preds = %38, %24
  br label %42

42:                                               ; preds = %41
  %43 = load i32, ptr %6, align 4
  %44 = add i32 %43, 1
  store i32 %44, ptr %6, align 4
  br label %20, !llvm.loop !25

45:                                               ; preds = %23
  %46 = call noundef i64 @_ZNK3ue29CharReach5countEv(ptr noundef nonnull align 8 dereferenceable(32) %5)
  %47 = trunc i64 %46 to i32
  store i32 %47, ptr %2, align 4
  call void @llvm.lifetime.end.p0(i64 32, ptr %5) #20
  call void @llvm.lifetime.end.p0(i64 8, ptr %4) #20
  br label %48

48:                                               ; preds = %45, %11
  %49 = load i32, ptr %2, align 4
  ret i32 %49
}