; Function Attrs: mustprogress nofree norecurse nosync nounwind willreturn memory(read, inaccessiblemem: none) uwtable
define hidden noundef range(i32 0, 257) i32 @_ZN3ue223mcclellanStartReachSizeEPKNS_7raw_dfaE(ptr noundef readonly captures(none) %0) local_unnamed_addr #6 {
  %2 = alloca %"class.ue2::CharReach", align 8
  %3 = getelementptr inbounds nuw i8, ptr %0, i64 16
  %4 = getelementptr inbounds nuw i8, ptr %0, i64 24
  %5 = load ptr, ptr %4, align 8
  %6 = load ptr, ptr %3, align 8
  %7 = ptrtoint ptr %5 to i64
  %8 = ptrtoint ptr %6 to i64
  %9 = sub i64 %7, %8
  %10 = sdiv exact i64 %9, 96
  %11 = icmp ult i64 %10, 2
  br i1 %11, label %49, label %12

12:                                               ; preds = %1
  %13 = getelementptr inbounds nuw i8, ptr %0, i64 40
  %14 = load i16, ptr %13, align 8
  %15 = zext i16 %14 to i64
  %16 = getelementptr inbounds nuw %"struct.ue2::dstate", ptr %6, i64 %15
  call void @llvm.lifetime.start.p0(i64 32, ptr nonnull %2) #24
  call void @llvm.memset.p0.i64(ptr noundef nonnull align 8 dereferenceable(32) %2, i8 0, i64 32, i1 false)
  %17 = getelementptr inbounds nuw i8, ptr %0, i64 46
  %18 = load ptr, ptr %16, align 8
  br label %35

19:                                               ; preds = %48
  %20 = load i64, ptr %2, align 8
  %21 = tail call range(i64 0, 65) i64 @llvm.ctpop.i64(i64 %20)
  %22 = getelementptr inbounds nuw i8, ptr %2, i64 8
  %23 = load i64, ptr %22, align 8
  %24 = tail call range(i64 0, 65) i64 @llvm.ctpop.i64(i64 %23)
  %25 = add nuw nsw i64 %24, %21
  %26 = getelementptr inbounds nuw i8, ptr %2, i64 16
  %27 = load i64, ptr %26, align 8
  %28 = tail call range(i64 0, 65) i64 @llvm.ctpop.i64(i64 %27)
  %29 = add nuw nsw i64 %25, %28
  %30 = getelementptr inbounds nuw i8, ptr %2, i64 24
  %31 = load i64, ptr %30, align 8
  %32 = tail call range(i64 0, 65) i64 @llvm.ctpop.i64(i64 %31)
  %33 = add nuw nsw i64 %29, %32
  %34 = trunc nuw nsw i64 %33 to i32
  call void @llvm.lifetime.end.p0(i64 32, ptr nonnull %2) #24
  br label %49

35:                                               ; preds = %12, %48
  %indvars.iv = phi i64 [ 0, %12 ], [ %indvars.iv.next, %48 ]
  %36 = getelementptr inbounds nuw [257 x i16], ptr %17, i64 0, i64 %indvars.iv
  %37 = load i16, ptr %36, align 2
  %38 = zext i16 %37 to i64
  %39 = getelementptr inbounds nuw i16, ptr %18, i64 %38
  %40 = load i16, ptr %39, align 2
  %.not = icmp eq i16 %40, 0
  br i1 %.not, label %48, label %41

41:                                               ; preds = %35
  %42 = and i64 %indvars.iv, 63
  %43 = shl nuw i64 1, %42
  %44 = lshr i64 %indvars.iv, 6
  %45 = getelementptr inbounds nuw [4 x i64], ptr %2, i64 0, i64 %44
  %46 = load i64, ptr %45, align 8
  %47 = or i64 %46, %43
  store i64 %47, ptr %45, align 8
  br label %48

48:                                               ; preds = %35, %41
  %indvars.iv.next = add nuw nsw i64 %indvars.iv, 1
  %exitcond.not = icmp eq i64 %indvars.iv.next, 256
  br i1 %exitcond.not, label %19, label %35, !llvm.loop !266

49:                                               ; preds = %1, %19
  %.09 = phi i32 [ %34, %19 ], [ 0, %1 ]
  ret i32 %.09
}